target datalayout = "e-m:e-p270:32:32-p271:32:32-p272:64:64-i64:64-i128:128-f80:128-n8:16:32:64-S128"
target triple = "x86_64-pc-linux-gnu"

%struct.H5O_linfo_t = type { i8, i8, i64, i64, i64, i64, i64 }
%struct.H5O_loc_t = type { ptr, i64, i8 }

@H5G_init_g = external global i8, align 1
@H5_libterm_g = external global i8, align 1
@.str = private unnamed_addr constant [100 x i8] c"generated/home/dtcxzyw/WorkSpace/Projects/compilers/llvm-opt-benchmark/bench/hdf5/hdf5/src/H5Gobj.c\00", align 1
@H5E_SYM_g = external global i64, align 8
@H5E_CANTGET_g = external global i64, align 8
@H5E_BADVALUE_g = external global i64, align 8
@H5E_CANTINIT_g = external global i64, align 8
@H5E_FUNC_g = external global i64, align 8
@.str.18 = private unnamed_addr constant [32 x i8] c"interface initialization failed\00", align 1
@.str.19 = private unnamed_addr constant [34 x i8] c"can't check for link info message\00", align 1
@H5E_NOTFOUND_g = external global i64, align 8
@.str.35 = private unnamed_addr constant [46 x i8] c"creation order not tracked for links in group\00", align 1
@.str.38 = private unnamed_addr constant [33 x i8] c"no creation order index to query\00", align 1
@.str.47 = private unnamed_addr constant [20 x i8] c"can't locate object\00", align 1
@__func__.H5G_obj_lookup_by_idx = private unnamed_addr constant [22 x i8] c"H5G_obj_lookup_by_idx\00", align 1

; Function Attrs: nounwind uwtable
define i32 @H5G_obj_lookup_by_idx(ptr noundef %0, i32 noundef %1, i32 noundef %2, i64 noundef %3, ptr noundef %4) #0 {
  %6 = alloca ptr, align 8
  %7 = alloca i32, align 4
  %8 = alloca i32, align 4
  %9 = alloca i64, align 8
  %10 = alloca ptr, align 8
  %11 = alloca %struct.H5O_linfo_t, align 8
  %12 = alloca i32, align 4
  %13 = alloca i32, align 4
  %14 = alloca i64, align 8
  %15 = alloca i8, align 1
  store ptr %0, ptr %6, align 8, !tbaa !10
  store i32 %1, ptr %7, align 4, !tbaa !12
  store i32 %2, ptr %8, align 4, !tbaa !12
  store i64 %3, ptr %9, align 8, !tbaa !23
  store ptr %4, ptr %10, align 8, !tbaa !62
  call void @llvm.lifetime.start.p0(i64 48, ptr %11) #6
  call void @llvm.lifetime.start.p0(i64 4, ptr %12) #6
  call void @llvm.lifetime.start.p0(i64 4, ptr %13) #6
  store i32 0, ptr %13, align 4, !tbaa !12
  call void @llvm.lifetime.start.p0(i64 8, ptr %14) #6
  store i64 -1, ptr %14, align 8, !tbaa !23
  call void @llvm.lifetime.start.p0(i64 1, ptr %15) #6
  store i8 0, ptr %15, align 1, !tbaa !14
  %16 = load ptr, ptr %6, align 8, !tbaa !10
  %17 = getelementptr inbounds nuw %struct.H5O_loc_t, ptr %16, i32 0, i32 1
  %18 = load i64, ptr %17, align 8, !tbaa !56
  call void @H5AC_tag(i64 noundef %18, ptr noundef %14)
  %19 = load i8, ptr @H5G_init_g, align 1, !tbaa !14, !range !16, !noundef !17
  %20 = trunc i8 %19 to i1
  br i1 %20, label %25, label %21

21:                                               ; preds = %5
  %22 = load i8, ptr @H5_libterm_g, align 1, !tbaa !14, !range !16, !noundef !17
  %23 = trunc i8 %22 to i1
  %24 = xor i1 %23, true
  br label %25

25:                                               ; preds = %21, %5
  %26 = phi i1 [ false, %5 ], [ %24, %21 ]
  %27 = xor i1 %26, true
  %28 = xor i1 %27, true
  %29 = zext i1 %28 to i32
  %30 = sext i32 %29 to i64
  %31 = call i64 @llvm.expect.i64(i64 %30, i64 0)
  %32 = icmp ne i64 %31, 0
  br i1 %32, label %33, label %56

33:                                               ; preds = %25
  store i8 1, ptr @H5G_init_g, align 1, !tbaa !14
  %34 = call i32 @H5G__init_package()
  %35 = icmp slt i32 %34, 0
  br i1 %35, label %36, label %55

36:                                               ; preds = %33
  store i8 0, ptr @H5G_init_g, align 1, !tbaa !14
  br label %37

37:                                               ; preds = %36
  br label %38

38:                                               ; preds = %37
  br label %39

39:                                               ; preds = %38
  %40 = load i64, ptr @H5E_FUNC_g, align 8, !tbaa !23
  %41 = load i64, ptr @H5E_CANTINIT_g, align 8, !tbaa !23
  %42 = call i32 (ptr, ptr, i32, i64, i64, ptr, ...) @H5E_printf_stack(ptr noundef @.str, ptr noundef @__func__.H5G_obj_lookup_by_idx, i32 noundef 1111, i64 noundef %40, i64 noundef %41, ptr noundef @.str.18)
  br label %43

43:                                               ; preds = %39
  br label %44

44:                                               ; preds = %43
  store i8 1, ptr %15, align 1, !tbaa !14
  %45 = load i8, ptr %15, align 1, !tbaa !14, !range !16, !noundef !17
  %46 = trunc i8 %45 to i1
  %47 = zext i1 %46 to i8
  store i8 %47, ptr %15, align 1, !tbaa !14
  br label %48

48:                                               ; preds = %44
  br label %49

49:                                               ; preds = %48
  br label %50

50:                                               ; preds = %49
  store i32 -1, ptr %13, align 4, !tbaa !12
  br label %237

51:                                               ; No predecessors!
  br label %52

52:                                               ; preds = %51
  br label %53

53:                                               ; preds = %52
  br label %54

54:                                               ; preds = %53
  br label %55

55:                                               ; preds = %54, %33
  br label %56

56:                                               ; preds = %55, %25
  %57 = load i8, ptr @H5G_init_g, align 1, !tbaa !14, !range !16, !noundef !17
  %58 = trunc i8 %57 to i1
  br i1 %58, label %63, label %59

59:                                               ; preds = %56
  %60 = load i8, ptr @H5_libterm_g, align 1, !tbaa !14, !range !16, !noundef !17
  %61 = trunc i8 %60 to i1
  %62 = xor i1 %61, true
  br label %63

63:                                               ; preds = %59, %56
  %64 = phi i1 [ true, %56 ], [ %62, %59 ]
  %65 = xor i1 %64, true
  %66 = xor i1 %65, true
  %67 = zext i1 %66 to i32
  %68 = sext i32 %67 to i64
  %69 = call i64 @llvm.expect.i64(i64 %68, i64 1)
  %70 = icmp ne i64 %69, 0
  br i1 %70, label %71, label %238

71:                                               ; preds = %63
  %72 = load ptr, ptr %6, align 8, !tbaa !10
  %73 = call i32 @H5G__obj_get_linfo(ptr noundef %72, ptr noundef %11)
  store i32 %73, ptr %12, align 4, !tbaa !12
  %74 = icmp slt i32 %73, 0
  br i1 %74, label %75, label %94

75:                                               ; preds = %71
  br label %76

76:                                               ; preds = %75
  br label %77

77:                                               ; preds = %76
  br label %78

78:                                               ; preds = %77
  %79 = load i64, ptr @H5E_SYM_g, align 8, !tbaa !23
  %80 = load i64, ptr @H5E_CANTGET_g, align 8, !tbaa !23
  %81 = call i32 (ptr, ptr, i32, i64, i64, ptr, ...) @H5E_printf_stack(ptr noundef @.str, ptr noundef @__func__.H5G_obj_lookup_by_idx, i32 noundef 1118, i64 noundef %79, i64 noundef %80, ptr noundef @.str.19)
  br label %82

82:                                               ; preds = %78
  br label %83

83:                                               ; preds = %82
  store i8 1, ptr %15, align 1, !tbaa !14
  %84 = load i8, ptr %15, align 1, !tbaa !14, !range !16, !noundef !17
  %85 = trunc i8 %84 to i1
  %86 = zext i1 %85 to i8
  store i8 %86, ptr %15, align 1, !tbaa !14
  br label %87

87:                                               ; preds = %83
  br label %88

88:                                               ; preds = %87
  br label %89

89:                                               ; preds = %88
  store i32 -1, ptr %13, align 4, !tbaa !12
  br label %237

90:                                               ; No predecessors!
  br label %91

91:                                               ; preds = %90
  br label %92

92:                                               ; preds = %91
  br label %93

93:                                               ; preds = %92
  br label %94

94:                                               ; preds = %93, %71
  %95 = load i32, ptr %12, align 4, !tbaa !12
  %96 = icmp ne i32 %95, 0
  br i1 %96, label %97, label %187

97:                                               ; preds = %94
  %98 = load i32, ptr %7, align 4, !tbaa !12
  %99 = icmp eq i32 %98, 1
  br i1 %99, label %100, label %124

100:                                              ; preds = %97
  %101 = getelementptr inbounds nuw %struct.H5O_linfo_t, ptr %11, i32 0, i32 0
  %102 = load i8, ptr %101, align 8, !tbaa !30, !range !16, !noundef !17
  %103 = trunc i8 %102 to i1
  br i1 %103, label %123, label %104

104:                                              ; preds = %100
  br label %105

105:                                              ; preds = %104
  br label %106

106:                                              ; preds = %105
  br label %107

107:                                              ; preds = %106
  %108 = load i64, ptr @H5E_SYM_g, align 8, !tbaa !23
  %109 = load i64, ptr @H5E_NOTFOUND_g, align 8, !tbaa !23
  %110 = call i32 (ptr, ptr, i32, i64, i64, ptr, ...) @H5E_printf_stack(ptr noundef @.str, ptr noundef @__func__.H5G_obj_lookup_by_idx, i32 noundef 1124, i64 noundef %108, i64 noundef %109, ptr noundef @.str.35)
  br label %111

111:                                              ; preds = %107
  br label %112

112:                                              ; preds = %111
  store i8 1, ptr %15, align 1, !tbaa !14
  %113 = load i8, ptr %15, align 1, !tbaa !14, !range !16, !noundef !17
  %114 = trunc i8 %113 to i1
  %115 = zext i1 %114 to i8
  store i8 %115, ptr %15, align 1, !tbaa !14
  br label %116

116:                                              ; preds = %112
  br label %117

117:                                              ; preds = %116
  br label %118

118:                                              ; preds = %117
  store i32 -1, ptr %13, align 4, !tbaa !12
  br label %237

119:                                              ; No predecessors!
  br label %120

120:                                              ; preds = %119
  br label %121

121:                                              ; preds = %120
  br label %122

122:                                              ; preds = %121
  br label %123

123:                                              ; preds = %122, %100
  br label %124

124:                                              ; preds = %123, %97
  %125 = getelementptr inbounds nuw %struct.H5O_linfo_t, ptr %11, i32 0, i32 5
  %126 = load i64, ptr %125, align 8, !tbaa !59
  %127 = icmp ne i64 %126, -1
  br i1 %127, label %128, label %158

128:                                              ; preds = %124
  %129 = load ptr, ptr %6, align 8, !tbaa !10
  %130 = getelementptr inbounds nuw %struct.H5O_loc_t, ptr %129, i32 0, i32 0
  %131 = load ptr, ptr %130, align 8, !tbaa !60
  %132 = load i32, ptr %7, align 4, !tbaa !12
  %133 = load i32, ptr %8, align 4, !tbaa !12
  %134 = load i64, ptr %9, align 8, !tbaa !23
  %135 = load ptr, ptr %10, align 8, !tbaa !62
  %136 = call i32 @H5G__dense_lookup_by_idx(ptr noundef %131, ptr noundef %11, i32 noundef %132, i32 noundef %133, i64 noundef %134, ptr noundef %135)
  %137 = icmp slt i32 %136, 0
  br i1 %137, label %138, label %157

138:                                              ; preds = %128
  br label %139

139:                                              ; preds = %138
  br label %140

140:                                              ; preds = %139
  br label %141

141:                                              ; preds = %140
  %142 = load i64, ptr @H5E_SYM_g, align 8, !tbaa !23
  %143 = load i64, ptr @H5E_NOTFOUND_g, align 8, !tbaa !23
  %144 = call i32 (ptr, ptr, i32, i64, i64, ptr, ...) @H5E_printf_stack(ptr noundef @.str, ptr noundef @__func__.H5G_obj_lookup_by_idx, i32 noundef 1131, i64 noundef %142, i64 noundef %143, ptr noundef @.str.47)
  br label %145

145:                                              ; preds = %141
  br label %146

146:                                              ; preds = %145
  store i8 1, ptr %15, align 1, !tbaa !14
  %147 = load i8, ptr %15, align 1, !tbaa !14, !range !16, !noundef !17
  %148 = trunc i8 %147 to i1
  %149 = zext i1 %148 to i8
  store i8 %149, ptr %15, align 1, !tbaa !14
  br label %150

150:                                              ; preds = %146
  br label %151

151:                                              ; preds = %150
  br label %152

152:                                              ; preds = %151
  store i32 -1, ptr %13, align 4, !tbaa !12
  br label %237

153:                                              ; No predecessors!
  br label %154

154:                                              ; preds = %153
  br label %155

155:                                              ; preds = %154
  br label %156

156:                                              ; preds = %155
  br label %157

157:                                              ; preds = %156, %128
  br label %186

158:                                              ; preds = %124
  %159 = load ptr, ptr %6, align 8, !tbaa !10
  %160 = load i32, ptr %7, align 4, !tbaa !12
  %161 = load i32, ptr %8, align 4, !tbaa !12
  %162 = load i64, ptr %9, align 8, !tbaa !23
  %163 = load ptr, ptr %10, align 8, !tbaa !62
  %164 = call i32 @H5G__compact_lookup_by_idx(ptr noundef %159, ptr noundef %11, i32 noundef %160, i32 noundef %161, i64 noundef %162, ptr noundef %163)
  %165 = icmp slt i32 %164, 0
  br i1 %165, label %166, label %185

166:                                              ; preds = %158
  br label %167

167:                                              ; preds = %166
  br label %168

168:                                              ; preds = %167
  br label %169

169:                                              ; preds = %168
  %170 = load i64, ptr @H5E_SYM_g, align 8, !tbaa !23
  %171 = load i64, ptr @H5E_NOTFOUND_g, align 8, !tbaa !23
  %172 = call i32 (ptr, ptr, i32, i64, i64, ptr, ...) @H5E_printf_stack(ptr noundef @.str, ptr noundef @__func__.H5G_obj_lookup_by_idx, i32 noundef 1136, i64 noundef %170, i64 noundef %171, ptr noundef @.str.47)
  br label %173

173:                                              ; preds = %169
  br label %174

174:                                              ; preds = %173
  store i8 1, ptr %15, align 1, !tbaa !14
  %175 = load i8, ptr %15, align 1, !tbaa !14, !range !16, !noundef !17
  %176 = trunc i8 %175 to i1
  %177 = zext i1 %176 to i8
  store i8 %177, ptr %15, align 1, !tbaa !14
  br label %178

178:                                              ; preds = %174
  br label %179

179:                                              ; preds = %178
  br label %180

180:                                              ; preds = %179
  store i32 -1, ptr %13, align 4, !tbaa !12
  br label %237

181:                                              ; No predecessors!
  br label %182

182:                                              ; preds = %181
  br label %183

183:                                              ; preds = %182
  br label %184

184:                                              ; preds = %183
  br label %185

185:                                              ; preds = %184, %158
  br label %186

186:                                              ; preds = %185, %157
  br label %236

187:                                              ; preds = %94
  %188 = load i32, ptr %7, align 4, !tbaa !12
  %189 = icmp ne i32 %188, 0
  br i1 %189, label %190, label %209

190:                                              ; preds = %187
  br label %191

191:                                              ; preds = %190
  br label %192

192:                                              ; preds = %191
  br label %193

193:                                              ; preds = %192
  %194 = load i64, ptr @H5E_SYM_g, align 8, !tbaa !23
  %195 = load i64, ptr @H5E_BADVALUE_g, align 8, !tbaa !23
  %196 = call i32 (ptr, ptr, i32, i64, i64, ptr, ...) @H5E_printf_stack(ptr noundef @.str, ptr noundef @__func__.H5G_obj_lookup_by_idx, i32 noundef 1142, i64 noundef %194, i64 noundef %195, ptr noundef @.str.38)
  br label %197

197:                                              ; preds = %193
  br label %198

198:                                              ; preds = %197
  store i8 1, ptr %15, align 1, !tbaa !14
  %199 = load i8, ptr %15, align 1, !tbaa !14, !range !16, !noundef !17
  %200 = trunc i8 %199 to i1
  %201 = zext i1 %200 to i8
  store i8 %201, ptr %15, align 1, !tbaa !14
  br label %202

202:                                              ; preds = %198
  br label %203

203:                                              ; preds = %202
  br label %204

204:                                              ; preds = %203
  store i32 -1, ptr %13, align 4, !tbaa !12
  br label %237

205:                                              ; No predecessors!
  br label %206

206:                                              ; preds = %205
  br label %207

207:                                              ; preds = %206
  br label %208

208:                                              ; preds = %207
  br label %209

209:                                              ; preds = %208, %187
  %210 = load ptr, ptr %6, align 8, !tbaa !10
  %211 = load i32, ptr %8, align 4, !tbaa !12
  %212 = load i64, ptr %9, align 8, !tbaa !23
  %213 = load ptr, ptr %10, align 8, !tbaa !62
  %214 = call i32 @H5G__stab_lookup_by_idx(ptr noundef %210, i32 noundef %211, i64 noundef %212, ptr noundef %213)
  %215 = icmp slt i32 %214, 0
  br i1 %215, label %216, label %235

216:                                              ; preds = %209
  br label %217

217:                                              ; preds = %216
  br label %218

218:                                              ; preds = %217
  br label %219

219:                                              ; preds = %218
  %220 = load i64, ptr @H5E_SYM_g, align 8, !tbaa !23
  %221 = load i64, ptr @H5E_NOTFOUND_g, align 8, !tbaa !23
  %222 = call i32 (ptr, ptr, i32, i64, i64, ptr, ...) @H5E_printf_stack(ptr noundef @.str, ptr noundef @__func__.H5G_obj_lookup_by_idx, i32 noundef 1146, i64 noundef %220, i64 noundef %221, ptr noundef @.str.47)
  br label %223

223:                                              ; preds = %219
  br label %224

224:                                              ; preds = %223
  store i8 1, ptr %15, align 1, !tbaa !14
  %225 = load i8, ptr %15, align 1, !tbaa !14, !range !16, !noundef !17
  %226 = trunc i8 %225 to i1
  %227 = zext i1 %226 to i8
  store i8 %227, ptr %15, align 1, !tbaa !14
  br label %228

228:                                              ; preds = %224
  br label %229

229:                                              ; preds = %228
  br label %230

230:                                              ; preds = %229
  store i32 -1, ptr %13, align 4, !tbaa !12
  br label %237

231:                                              ; No predecessors!
  br label %232

232:                                              ; preds = %231
  br label %233

233:                                              ; preds = %232
  br label %234

234:                                              ; preds = %233
  br label %235

235:                                              ; preds = %234, %209
  br label %236

236:                                              ; preds = %235, %186
  br label %237

237:                                              ; preds = %236, %230, %204, %180, %152, %118, %89, %50
  br label %238

238:                                              ; preds = %237, %63
  %239 = load i64, ptr %14, align 8, !tbaa !23
  call void @H5AC_tag(i64 noundef %239, ptr noundef null)
  %240 = load i32, ptr %13, align 4, !tbaa !12
  call void @llvm.lifetime.end.p0(i64 1, ptr %15) #6
  call void @llvm.lifetime.end.p0(i64 8, ptr %14) #6
  call void @llvm.lifetime.end.p0(i64 4, ptr %13) #6
  call void @llvm.lifetime.end.p0(i64 4, ptr %12) #6
  call void @llvm.lifetime.end.p0(i64 48, ptr %11) #6
  ret i32 %240
}