; Function Attrs: nounwind uwtable
define range(i32 -1, 1) i32 @H5G_obj_lookup_by_idx(ptr noundef %0, i32 noundef %1, i32 noundef %2, i64 noundef %3, ptr noundef %4) local_unnamed_addr #0 {
  %6 = alloca %struct.H5O_linfo_t, align 8
  %7 = alloca i64, align 8
  call void @llvm.lifetime.start.p0(i64 48, ptr nonnull %6) #5
  call void @llvm.lifetime.start.p0(i64 8, ptr nonnull %7) #5
  store i64 -1, ptr %7, align 8, !tbaa !14
  %8 = getelementptr inbounds nuw i8, ptr %0, i64 8
  %9 = load i64, ptr %8, align 8, !tbaa !41
  call void @H5AC_tag(i64 noundef %9, ptr noundef nonnull %7) #5
  %10 = load i8, ptr @H5G_init_g, align 1, !tbaa !3, !range !7, !noundef !8
  %11 = trunc nuw i8 %10 to i1
  %12 = load i8, ptr @H5_libterm_g, align 1, !range !7
  %13 = trunc nuw i8 %12 to i1
  %14 = select i1 %11, i1 true, i1 %13
  br i1 %14, label %22, label %15, !prof !9

15:                                               ; preds = %5
  store i8 1, ptr @H5G_init_g, align 1, !tbaa !3
  %16 = call i32 @H5G__init_package() #5
  %17 = icmp slt i32 %16, 0
  br i1 %17, label %18, label %._crit_edge

._crit_edge:                                      ; preds = %15
  %.pre = load i8, ptr @H5G_init_g, align 1, !tbaa !3, !range !7
  %.pre29 = load i8, ptr @H5_libterm_g, align 1, !range !7
  %.pre30 = trunc nuw i8 %.pre to i1
  %.pre31 = trunc nuw i8 %.pre29 to i1
  br label %22

18:                                               ; preds = %15
  store i8 0, ptr @H5G_init_g, align 1, !tbaa !3
  %19 = load i64, ptr @H5E_FUNC_g, align 8, !tbaa !14
  %20 = load i64, ptr @H5E_CANTINIT_g, align 8, !tbaa !14
  %21 = call i32 (ptr, ptr, i32, i64, i64, ptr, ...) @H5E_printf_stack(ptr noundef nonnull @.str, ptr noundef nonnull @__func__.H5G_obj_lookup_by_idx, i32 noundef 1111, i64 noundef %19, i64 noundef %20, ptr noundef nonnull @.str.18) #5
  br label %72

22:                                               ; preds = %._crit_edge, %5
  %.pre-phi32 = phi i1 [ %.pre31, %._crit_edge ], [ %13, %5 ]
  %.pre-phi = phi i1 [ %.pre30, %._crit_edge ], [ %11, %5 ]
  %23 = xor i1 %.pre-phi32, true
  %24 = select i1 %.pre-phi, i1 true, i1 %23
  br i1 %24, label %25, label %72, !prof !9

25:                                               ; preds = %22
  %26 = call i32 @H5G__obj_get_linfo(ptr noundef nonnull %0, ptr noundef nonnull %6)
  %27 = icmp slt i32 %26, 0
  br i1 %27, label %28, label %32

28:                                               ; preds = %25
  %29 = load i64, ptr @H5E_SYM_g, align 8, !tbaa !14
  %30 = load i64, ptr @H5E_CANTGET_g, align 8, !tbaa !14
  %31 = call i32 (ptr, ptr, i32, i64, i64, ptr, ...) @H5E_printf_stack(ptr noundef nonnull @.str, ptr noundef nonnull @__func__.H5G_obj_lookup_by_idx, i32 noundef 1118, i64 noundef %29, i64 noundef %30, ptr noundef nonnull @.str.19) #5
  br label %72

32:                                               ; preds = %25
  %.not = icmp eq i32 %26, 0
  br i1 %.not, label %60, label %33

33:                                               ; preds = %32
  %34 = icmp eq i32 %1, 1
  br i1 %34, label %35, label %42

35:                                               ; preds = %33
  %36 = load i8, ptr %6, align 8, !tbaa !15, !range !7, !noundef !8
  %37 = trunc nuw i8 %36 to i1
  br i1 %37, label %42, label %38

38:                                               ; preds = %35
  %39 = load i64, ptr @H5E_SYM_g, align 8, !tbaa !14
  %40 = load i64, ptr @H5E_NOTFOUND_g, align 8, !tbaa !14
  %41 = call i32 (ptr, ptr, i32, i64, i64, ptr, ...) @H5E_printf_stack(ptr noundef nonnull @.str, ptr noundef nonnull @__func__.H5G_obj_lookup_by_idx, i32 noundef 1124, i64 noundef %39, i64 noundef %40, ptr noundef nonnull @.str.35) #5
  br label %72

42:                                               ; preds = %35, %33
  %43 = getelementptr inbounds nuw i8, ptr %6, i64 32
  %44 = load i64, ptr %43, align 8, !tbaa !44
  %.not28 = icmp eq i64 %44, -1
  br i1 %.not28, label %53, label %45

45:                                               ; preds = %42
  %46 = load ptr, ptr %0, align 8, !tbaa !45
  %47 = call i32 @H5G__dense_lookup_by_idx(ptr noundef %46, ptr noundef nonnull %6, i32 noundef %1, i32 noundef %2, i64 noundef %3, ptr noundef %4) #5
  %48 = icmp slt i32 %47, 0
  br i1 %48, label %49, label %72

49:                                               ; preds = %45
  %50 = load i64, ptr @H5E_SYM_g, align 8, !tbaa !14
  %51 = load i64, ptr @H5E_NOTFOUND_g, align 8, !tbaa !14
  %52 = call i32 (ptr, ptr, i32, i64, i64, ptr, ...) @H5E_printf_stack(ptr noundef nonnull @.str, ptr noundef nonnull @__func__.H5G_obj_lookup_by_idx, i32 noundef 1131, i64 noundef %50, i64 noundef %51, ptr noundef nonnull @.str.47) #5
  br label %72

53:                                               ; preds = %42
  %54 = call i32 @H5G__compact_lookup_by_idx(ptr noundef nonnull %0, ptr noundef nonnull %6, i32 noundef %1, i32 noundef %2, i64 noundef %3, ptr noundef %4) #5
  %55 = icmp slt i32 %54, 0
  br i1 %55, label %56, label %72

56:                                               ; preds = %53
  %57 = load i64, ptr @H5E_SYM_g, align 8, !tbaa !14
  %58 = load i64, ptr @H5E_NOTFOUND_g, align 8, !tbaa !14
  %59 = call i32 (ptr, ptr, i32, i64, i64, ptr, ...) @H5E_printf_stack(ptr noundef nonnull @.str, ptr noundef nonnull @__func__.H5G_obj_lookup_by_idx, i32 noundef 1136, i64 noundef %57, i64 noundef %58, ptr noundef nonnull @.str.47) #5
  br label %72

60:                                               ; preds = %32
  %.not27 = icmp eq i32 %1, 0
  br i1 %.not27, label %65, label %61

61:                                               ; preds = %60
  %62 = load i64, ptr @H5E_SYM_g, align 8, !tbaa !14
  %63 = load i64, ptr @H5E_BADVALUE_g, align 8, !tbaa !14
  %64 = call i32 (ptr, ptr, i32, i64, i64, ptr, ...) @H5E_printf_stack(ptr noundef nonnull @.str, ptr noundef nonnull @__func__.H5G_obj_lookup_by_idx, i32 noundef 1142, i64 noundef %62, i64 noundef %63, ptr noundef nonnull @.str.38) #5
  br label %72

65:                                               ; preds = %60
  %66 = call i32 @H5G__stab_lookup_by_idx(ptr noundef nonnull %0, i32 noundef %2, i64 noundef %3, ptr noundef %4) #5
  %67 = icmp slt i32 %66, 0
  br i1 %67, label %68, label %72

68:                                               ; preds = %65
  %69 = load i64, ptr @H5E_SYM_g, align 8, !tbaa !14
  %70 = load i64, ptr @H5E_NOTFOUND_g, align 8, !tbaa !14
  %71 = call i32 (ptr, ptr, i32, i64, i64, ptr, ...) @H5E_printf_stack(ptr noundef nonnull @.str, ptr noundef nonnull @__func__.H5G_obj_lookup_by_idx, i32 noundef 1146, i64 noundef %69, i64 noundef %70, ptr noundef nonnull @.str.47) #5
  br label %72

72:                                               ; preds = %18, %28, %38, %49, %56, %61, %68, %65, %45, %53, %22
  %.0 = phi i32 [ -1, %18 ], [ -1, %28 ], [ -1, %49 ], [ 0, %45 ], [ -1, %56 ], [ 0, %53 ], [ -1, %38 ], [ -1, %61 ], [ -1, %68 ], [ 0, %65 ], [ 0, %22 ]
  %73 = load i64, ptr %7, align 8, !tbaa !14
  call void @H5AC_tag(i64 noundef %73, ptr noundef null) #5
  call void @llvm.lifetime.end.p0(i64 8, ptr nonnull %7) #5
  call void @llvm.lifetime.end.p0(i64 48, ptr nonnull %6) #5
  ret i32 %.0
}